target datalayout = "e-m:e-p270:32:32-p271:32:32-p272:64:64-i64:64-i128:128-f80:128-n8:16:32:64-S128"
target triple = "x86_64-pc-linux-gnu"

%struct.test_fixture = type { ptr, ptr, i32, i32, i32, ptr, i32, ptr }

@newkey = internal global ptr null, align 8
@libctx = internal global ptr null, align 8
@.str.14 = private unnamed_addr constant [31 x i8] c"../openssl/test/cmp_msg_test.c\00", align 1
@.str.23 = private unnamed_addr constant [2 x i8] c"1\00", align 1
@.str.27 = private unnamed_addr constant [34 x i8] c"test_cmp_create_ir_protection_set\00", align 1
@.str.55 = private unnamed_addr constant [49 x i8] c"RAND_bytes_ex(libctx, secret, sizeof(secret), 0)\00", align 1
@.str.56 = private unnamed_addr constant [33 x i8] c"SET_OPT_UNPROTECTED_SEND(ctx, 0)\00", align 1
@.str.57 = private unnamed_addr constant [26 x i8] c"set1_newPkey(ctx, newkey)\00", align 1
@.str.58 = private unnamed_addr constant [59 x i8] c"OSSL_CMP_CTX_set1_secretValue(ctx, secret, sizeof(secret))\00", align 1

; Function Attrs: nounwind uwtable
define internal void @tear_down(ptr noundef %0) #0 {
  %2 = alloca ptr, align 8
  store ptr %0, ptr %2, align 8, !tbaa !17
  %3 = load ptr, ptr %2, align 8, !tbaa !17
  %4 = getelementptr inbounds nuw %struct.test_fixture, ptr %3, i32 0, i32 1
  %5 = load ptr, ptr %4, align 8, !tbaa !28
  call void @OSSL_CMP_CTX_free(ptr noundef %5)
  %6 = load ptr, ptr %2, align 8, !tbaa !17
  %7 = getelementptr inbounds nuw %struct.test_fixture, ptr %6, i32 0, i32 5
  %8 = load ptr, ptr %7, align 8, !tbaa !37
  call void @OSSL_CMP_MSG_free(ptr noundef %8)
  %9 = load ptr, ptr %2, align 8, !tbaa !17
  %10 = getelementptr inbounds nuw %struct.test_fixture, ptr %9, i32 0, i32 7
  %11 = load ptr, ptr %10, align 8, !tbaa !30
  call void @OSSL_CMP_PKISI_free(ptr noundef %11)
  %12 = load ptr, ptr %2, align 8, !tbaa !17
  call void @CRYPTO_free(ptr noundef %12, ptr noundef @.str.14, i32 noundef 43)
  ret void
}

; Function Attrs: nounwind uwtable
define internal i32 @set1_newPkey(ptr noundef %0, ptr noundef %1) #0 {
  %3 = alloca i32, align 4
  %4 = alloca ptr, align 8
  %5 = alloca ptr, align 8
  store ptr %0, ptr %4, align 8, !tbaa !29
  store ptr %1, ptr %5, align 8, !tbaa !4
  %6 = load ptr, ptr %5, align 8, !tbaa !4
  %7 = call i32 @EVP_PKEY_up_ref(ptr noundef %6)
  %8 = icmp ne i32 %7, 0
  br i1 %8, label %10, label %9

9:                                                ; preds = %2
  store i32 0, ptr %3, align 4
  br label %18

10:                                               ; preds = %2
  %11 = load ptr, ptr %4, align 8, !tbaa !29
  %12 = load ptr, ptr %5, align 8, !tbaa !4
  %13 = call i32 @OSSL_CMP_CTX_set0_newPkey(ptr noundef %11, i32 noundef 1, ptr noundef %12)
  %14 = icmp ne i32 %13, 0
  br i1 %14, label %17, label %15

15:                                               ; preds = %10
  %16 = load ptr, ptr %5, align 8, !tbaa !4
  call void @EVP_PKEY_free(ptr noundef %16)
  store i32 0, ptr %3, align 4
  br label %18

17:                                               ; preds = %10
  store i32 1, ptr %3, align 4
  br label %18

18:                                               ; preds = %17, %15, %9
  %19 = load i32, ptr %3, align 4
  ret i32 %19
}

; Function Attrs: nounwind uwtable
define internal i32 @test_cmp_create_ir_protection_set() #0 {
  %1 = alloca i32, align 4
  %2 = alloca ptr, align 8
  %3 = alloca [16 x i8], align 16
  %4 = alloca ptr, align 8
  %5 = alloca i32, align 4
  %6 = alloca i32, align 4
  call void @llvm.lifetime.start.p0(i64 8, ptr %2) #4
  call void @llvm.lifetime.start.p0(i64 16, ptr %3) #4
  call void @llvm.lifetime.start.p0(i64 8, ptr %4) #4
  %7 = call ptr @set_up(ptr noundef @.str.27)
  store ptr %7, ptr %4, align 8, !tbaa !17
  call void @llvm.lifetime.start.p0(i64 4, ptr %5) #4
  store i32 0, ptr %5, align 4, !tbaa !19
  %8 = load ptr, ptr %4, align 8, !tbaa !17
  %9 = icmp eq ptr %8, null
  br i1 %9, label %10, label %11

10:                                               ; preds = %0
  store i32 0, ptr %1, align 4
  store i32 1, ptr %6, align 4
  br label %60

11:                                               ; preds = %0
  %12 = load ptr, ptr %4, align 8, !tbaa !17
  %13 = getelementptr inbounds nuw %struct.test_fixture, ptr %12, i32 0, i32 1
  %14 = load ptr, ptr %13, align 8, !tbaa !28
  store ptr %14, ptr %2, align 8, !tbaa !29
  %15 = load ptr, ptr %4, align 8, !tbaa !17
  %16 = getelementptr inbounds nuw %struct.test_fixture, ptr %15, i32 0, i32 2
  store i32 0, ptr %16, align 8, !tbaa !21
  %17 = load ptr, ptr %4, align 8, !tbaa !17
  %18 = getelementptr inbounds nuw %struct.test_fixture, ptr %17, i32 0, i32 3
  store i32 -1, ptr %18, align 4, !tbaa !26
  %19 = load ptr, ptr %4, align 8, !tbaa !17
  %20 = getelementptr inbounds nuw %struct.test_fixture, ptr %19, i32 0, i32 6
  store i32 1, ptr %20, align 8, !tbaa !27
  %21 = load ptr, ptr @libctx, align 8, !tbaa !13
  %22 = getelementptr inbounds [16 x i8], ptr %3, i64 0, i64 0
  %23 = call i32 @RAND_bytes_ex(ptr noundef %21, ptr noundef %22, i64 noundef 16, i32 noundef 0)
  %24 = call i32 @test_int_eq(ptr noundef @.str.14, i32 noundef 153, ptr noundef @.str.23, ptr noundef @.str.55, i32 noundef 1, i32 noundef %23)
  %25 = icmp ne i32 %24, 0
  br i1 %25, label %26, label %49

26:                                               ; preds = %11
  %27 = load ptr, ptr %2, align 8, !tbaa !29
  %28 = call i32 @OSSL_CMP_CTX_set_option(ptr noundef %27, i32 noundef 30, i32 noundef 0)
  %29 = icmp ne i32 %28, 0
  %30 = zext i1 %29 to i32
  %31 = call i32 @test_true(ptr noundef @.str.14, i32 noundef 154, ptr noundef @.str.56, i32 noundef %30)
  %32 = icmp ne i32 %31, 0
  br i1 %32, label %33, label %49

33:                                               ; preds = %26
  %34 = load ptr, ptr %2, align 8, !tbaa !29
  %35 = load ptr, ptr @newkey, align 8, !tbaa !4
  %36 = call i32 @set1_newPkey(ptr noundef %34, ptr noundef %35)
  %37 = icmp ne i32 %36, 0
  %38 = zext i1 %37 to i32
  %39 = call i32 @test_true(ptr noundef @.str.14, i32 noundef 155, ptr noundef @.str.57, i32 noundef %38)
  %40 = icmp ne i32 %39, 0
  br i1 %40, label %41, label %49

41:                                               ; preds = %33
  %42 = load ptr, ptr %2, align 8, !tbaa !29
  %43 = getelementptr inbounds [16 x i8], ptr %3, i64 0, i64 0
  %44 = call i32 @OSSL_CMP_CTX_set1_secretValue(ptr noundef %42, ptr noundef %43, i32 noundef 16)
  %45 = icmp ne i32 %44, 0
  %46 = zext i1 %45 to i32
  %47 = call i32 @test_true(ptr noundef @.str.14, i32 noundef 157, ptr noundef @.str.58, i32 noundef %46)
  %48 = icmp ne i32 %47, 0
  br i1 %48, label %51, label %49

49:                                               ; preds = %41, %33, %26, %11
  %50 = load ptr, ptr %4, align 8, !tbaa !17
  call void @tear_down(ptr noundef %50)
  store ptr null, ptr %4, align 8, !tbaa !17
  br label %51

51:                                               ; preds = %49, %41
  %52 = load ptr, ptr %4, align 8, !tbaa !17
  %53 = icmp ne ptr %52, null
  br i1 %53, label %54, label %58

54:                                               ; preds = %51
  %55 = load ptr, ptr %4, align 8, !tbaa !17
  %56 = call i32 @execute_certreq_create_test(ptr noundef %55)
  store i32 %56, ptr %5, align 4, !tbaa !19
  %57 = load ptr, ptr %4, align 8, !tbaa !17
  call void @tear_down(ptr noundef %57)
  br label %58

58:                                               ; preds = %54, %51
  %59 = load i32, ptr %5, align 4, !tbaa !19
  store i32 %59, ptr %1, align 4
  store i32 1, ptr %6, align 4
  br label %60

60:                                               ; preds = %58, %10
  call void @llvm.lifetime.end.p0(i64 4, ptr %5) #4
  call void @llvm.lifetime.end.p0(i64 8, ptr %4) #4
  call void @llvm.lifetime.end.p0(i64 16, ptr %3) #4
  call void @llvm.lifetime.end.p0(i64 8, ptr %2) #4
  %61 = load i32, ptr %1, align 4
  ret i32 %61
}