; Function Attrs: nounwind uwtable
define internal i32 @test_cmp_create_ir_protection_set() #0 {
  %1 = alloca [16 x i8], align 16
  call void @llvm.lifetime.start.p0(i64 16, ptr nonnull %1) #4
  %2 = tail call fastcc ptr @set_up(ptr noundef nonnull @.str.27)
  %3 = icmp eq ptr %2, null
  br i1 %3, label %37, label %4

4:                                                ; preds = %0
  %5 = getelementptr inbounds nuw i8, ptr %2, i64 8
  %6 = load ptr, ptr %5, align 8, !tbaa !25
  %7 = getelementptr inbounds nuw i8, ptr %2, i64 16
  store i32 0, ptr %7, align 8, !tbaa !17
  %8 = getelementptr inbounds nuw i8, ptr %2, i64 20
  store i32 -1, ptr %8, align 4, !tbaa !23
  %9 = getelementptr inbounds nuw i8, ptr %2, i64 40
  store i32 1, ptr %9, align 8, !tbaa !24
  %10 = load ptr, ptr @libctx, align 8, !tbaa !13
  %11 = call i32 @RAND_bytes_ex(ptr noundef %10, ptr noundef nonnull %1, i64 noundef 16, i32 noundef 0) #4
  %12 = call i32 @test_int_eq(ptr noundef nonnull @.str.14, i32 noundef 153, ptr noundef nonnull @.str.23, ptr noundef nonnull @.str.55, i32 noundef 1, i32 noundef %11) #4
  %.not = icmp eq i32 %12, 0
  br i1 %.not, label %.sink.split, label %13

13:                                               ; preds = %4
  %14 = call i32 @OSSL_CMP_CTX_set_option(ptr noundef %6, i32 noundef 30, i32 noundef 0) #4
  %15 = icmp ne i32 %14, 0
  %16 = zext i1 %15 to i32
  %17 = call i32 @test_true(ptr noundef nonnull @.str.14, i32 noundef 154, ptr noundef nonnull @.str.56, i32 noundef %16) #4
  %.not16 = icmp eq i32 %17, 0
  br i1 %.not16, label %.sink.split, label %18

18:                                               ; preds = %13
  %19 = load ptr, ptr @newkey, align 8, !tbaa !4
  %20 = call i32 @EVP_PKEY_up_ref(ptr noundef %19) #4
  %.not.i = icmp eq i32 %20, 0
  br i1 %.not.i, label %set1_newPkey.exit, label %21

21:                                               ; preds = %18
  %22 = call i32 @OSSL_CMP_CTX_set0_newPkey(ptr noundef %6, i32 noundef 1, ptr noundef %19) #4
  %.not4.i = icmp eq i32 %22, 0
  br i1 %.not4.i, label %23, label %set1_newPkey.exit

23:                                               ; preds = %21
  call void @EVP_PKEY_free(ptr noundef %19) #4
  br label %set1_newPkey.exit

set1_newPkey.exit:                                ; preds = %18, %21, %23
  %.0.i = phi i32 [ 0, %23 ], [ 0, %18 ], [ 1, %21 ]
  %24 = call i32 @test_true(ptr noundef nonnull @.str.14, i32 noundef 155, ptr noundef nonnull @.str.57, i32 noundef %.0.i) #4
  %.not17 = icmp eq i32 %24, 0
  br i1 %.not17, label %.sink.split, label %25

25:                                               ; preds = %set1_newPkey.exit
  %26 = call i32 @OSSL_CMP_CTX_set1_secretValue(ptr noundef %6, ptr noundef nonnull %1, i32 noundef 16) #4
  %27 = icmp ne i32 %26, 0
  %28 = zext i1 %27 to i32
  %29 = call i32 @test_true(ptr noundef nonnull @.str.14, i32 noundef 157, ptr noundef nonnull @.str.58, i32 noundef %28) #4
  %.not18 = icmp eq i32 %29, 0
  br i1 %.not18, label %.sink.split, label %30

30:                                               ; preds = %25
  %31 = call fastcc i32 @execute_certreq_create_test(ptr noundef %2)
  br label %.sink.split

.sink.split:                                      ; preds = %25, %set1_newPkey.exit, %13, %4, %30
  %.014.ph = phi i32 [ %31, %30 ], [ 0, %4 ], [ 0, %13 ], [ 0, %set1_newPkey.exit ], [ 0, %25 ]
  %32 = load ptr, ptr %5, align 8, !tbaa !25
  call void @OSSL_CMP_CTX_free(ptr noundef %32) #4
  %33 = getelementptr inbounds nuw i8, ptr %2, i64 32
  %34 = load ptr, ptr %33, align 8, !tbaa !26
  call void @OSSL_CMP_MSG_free(ptr noundef %34) #4
  %35 = getelementptr inbounds nuw i8, ptr %2, i64 48
  %36 = load ptr, ptr %35, align 8, !tbaa !27
  call void @OSSL_CMP_PKISI_free(ptr noundef %36) #4
  call void @CRYPTO_free(ptr noundef nonnull %2, ptr noundef nonnull @.str.14, i32 noundef 43) #4
  br label %37

37:                                               ; preds = %.sink.split, %0
  %.014 = phi i32 [ 0, %0 ], [ %.014.ph, %.sink.split ]
  call void @llvm.lifetime.end.p0(i64 16, ptr nonnull %1) #4
  ret i32 %.014
}